; ModuleID = '20/40.c'
source_filename = "20/40.c"
target datalayout = "e-m:e-p270:32:32-p271:32:32-p272:64:64-i64:64-f80:128-n8:16:32:64-S128"
target triple = "x86_64-pc-linux-gnu"

@.str = private unnamed_addr constant [3 x i8] c"%c\00", align 1
@.str.1 = private unnamed_addr constant [7 x i8] c"%c%c%c\00", align 1
@.str.2 = private unnamed_addr constant [2 x i8] c"\0A\00", align 1

; Function Attrs: noinline nounwind uwtable
define dso_local void @main() #0 {
  %1 = alloca i32, align 4
  %2 = alloca i32, align 4
  %3 = alloca i32, align 4
  %4 = alloca [100 x i32], align 16
  %5 = alloca i32, align 4
  %6 = alloca i8, align 1
  %7 = alloca [100 x [50 x i8]], align 16
  %8 = alloca [100 x [50 x i8]], align 16
  store i32 0, i32* %1, align 4
  br label %9

9:                                                ; preds = %179, %0
  %10 = load i32, i32* %1, align 4
  %11 = icmp slt i32 %10, 100
  br i1 %11, label %12, label %182

12:                                               ; preds = %9
  %13 = load i32, i32* %1, align 4
  %14 = sext i32 %13 to i64
  %15 = getelementptr inbounds [100 x [50 x i8]], [100 x [50 x i8]]* %7, i64 0, i64 %14
  %16 = getelementptr inbounds [50 x i8], [50 x i8]* %15, i64 0, i64 0
  %17 = call i32 (i8*, ...) bitcast (i32 (...)* @gets to i32 (i8*, ...)*)(i8* %16)
  %18 = load i32, i32* %1, align 4
  %19 = sext i32 %18 to i64
  %20 = getelementptr inbounds [100 x [50 x i8]], [100 x [50 x i8]]* %7, i64 0, i64 %19
  %21 = getelementptr inbounds [50 x i8], [50 x i8]* %20, i64 0, i64 0
  %22 = call i64 @strlen(i8* %21) #3
  %23 = icmp eq i64 %22, 0
  br i1 %23, label %24, label %25

24:                                               ; preds = %12
  br label %182

25:                                               ; preds = %12
  %26 = load i32, i32* %1, align 4
  %27 = sext i32 %26 to i64
  %28 = getelementptr inbounds [100 x i32], [100 x i32]* %4, i64 0, i64 %27
  store i32 0, i32* %28, align 4
  %29 = load i32, i32* %1, align 4
  %30 = sext i32 %29 to i64
  %31 = getelementptr inbounds [100 x [50 x i8]], [100 x [50 x i8]]* %7, i64 0, i64 %30
  %32 = getelementptr inbounds [50 x i8], [50 x i8]* %31, i64 0, i64 0
  %33 = load i8, i8* %32, align 2
  store i8 %33, i8* %6, align 1
  store i32 1, i32* %2, align 4
  br label %34

34:                                               ; preds = %69, %25
  %35 = load i32, i32* %1, align 4
  %36 = sext i32 %35 to i64
  %37 = getelementptr inbounds [100 x [50 x i8]], [100 x [50 x i8]]* %7, i64 0, i64 %36
  %38 = load i32, i32* %2, align 4
  %39 = sext i32 %38 to i64
  %40 = getelementptr inbounds [50 x i8], [50 x i8]* %37, i64 0, i64 %39
  %41 = load i8, i8* %40, align 1
  %42 = sext i8 %41 to i32
  %43 = icmp ne i32 %42, 32
  br i1 %43, label %44, label %72

44:                                               ; preds = %34
  %45 = load i32, i32* %1, align 4
  %46 = sext i32 %45 to i64
  %47 = getelementptr inbounds [100 x [50 x i8]], [100 x [50 x i8]]* %7, i64 0, i64 %46
  %48 = load i32, i32* %2, align 4
  %49 = sext i32 %48 to i64
  %50 = getelementptr inbounds [50 x i8], [50 x i8]* %47, i64 0, i64 %49
  %51 = load i8, i8* %50, align 1
  %52 = sext i8 %51 to i32
  %53 = load i8, i8* %6, align 1
  %54 = sext i8 %53 to i32
  %55 = icmp sgt i32 %52, %54
  br i1 %55, label %56, label %68

56:                                               ; preds = %44
  %57 = load i32, i32* %1, align 4
  %58 = sext i32 %57 to i64
  %59 = getelementptr inbounds [100 x [50 x i8]], [100 x [50 x i8]]* %7, i64 0, i64 %58
  %60 = load i32, i32* %2, align 4
  %61 = sext i32 %60 to i64
  %62 = getelementptr inbounds [50 x i8], [50 x i8]* %59, i64 0, i64 %61
  %63 = load i8, i8* %62, align 1
  store i8 %63, i8* %6, align 1
  %64 = load i32, i32* %2, align 4
  %65 = load i32, i32* %1, align 4
  %66 = sext i32 %65 to i64
  %67 = getelementptr inbounds [100 x i32], [100 x i32]* %4, i64 0, i64 %66
  store i32 %64, i32* %67, align 4
  br label %68

68:                                               ; preds = %56, %44
  br label %69

69:                                               ; preds = %68
  %70 = load i32, i32* %2, align 4
  %71 = add nsw i32 %70, 1
  store i32 %71, i32* %2, align 4
  br label %34

72:                                               ; preds = %34
  store i32 1, i32* %2, align 4
  br label %73

73:                                               ; preds = %95, %72
  %74 = load i32, i32* %2, align 4
  %75 = sext i32 %74 to i64
  %76 = load i32, i32* %1, align 4
  %77 = sext i32 %76 to i64
  %78 = getelementptr inbounds [100 x [50 x i8]], [100 x [50 x i8]]* %7, i64 0, i64 %77
  %79 = getelementptr inbounds [50 x i8], [50 x i8]* %78, i64 0, i64 0
  %80 = call i64 @strlen(i8* %79) #3
  %81 = icmp ult i64 %75, %80
  br i1 %81, label %82, label %98

82:                                               ; preds = %73
  %83 = load i32, i32* %1, align 4
  %84 = sext i32 %83 to i64
  %85 = getelementptr inbounds [100 x [50 x i8]], [100 x [50 x i8]]* %7, i64 0, i64 %84
  %86 = load i32, i32* %2, align 4
  %87 = sext i32 %86 to i64
  %88 = getelementptr inbounds [50 x i8], [50 x i8]* %85, i64 0, i64 %87
  %89 = load i8, i8* %88, align 1
  %90 = sext i8 %89 to i32
  %91 = icmp eq i32 %90, 32
  br i1 %91, label %92, label %94

92:                                               ; preds = %82
  %93 = load i32, i32* %2, align 4
  store i32 %93, i32* %3, align 4
  br label %98

94:                                               ; preds = %82
  br label %95

95:                                               ; preds = %94
  %96 = load i32, i32* %2, align 4
  %97 = add nsw i32 %96, 1
  store i32 %97, i32* %2, align 4
  br label %73

98:                                               ; preds = %92, %73
  store i32 0, i32* %2, align 4
  br label %99

99:                                               ; preds = %116, %98
  %100 = load i32, i32* %2, align 4
  %101 = load i32, i32* %1, align 4
  %102 = sext i32 %101 to i64
  %103 = getelementptr inbounds [100 x i32], [100 x i32]* %4, i64 0, i64 %102
  %104 = load i32, i32* %103, align 4
  %105 = icmp sle i32 %100, %104
  br i1 %105, label %106, label %119

106:                                              ; preds = %99
  %107 = load i32, i32* %1, align 4
  %108 = sext i32 %107 to i64
  %109 = getelementptr inbounds [100 x [50 x i8]], [100 x [50 x i8]]* %7, i64 0, i64 %108
  %110 = load i32, i32* %2, align 4
  %111 = sext i32 %110 to i64
  %112 = getelementptr inbounds [50 x i8], [50 x i8]* %109, i64 0, i64 %111
  %113 = load i8, i8* %112, align 1
  %114 = sext i8 %113 to i32
  %115 = call i32 (i8*, ...) @printf(i8* getelementptr inbounds ([3 x i8], [3 x i8]* @.str, i64 0, i64 0), i32 %114)
  br label %116

116:                                              ; preds = %106
  %117 = load i32, i32* %2, align 4
  %118 = add nsw i32 %117, 1
  store i32 %118, i32* %2, align 4
  br label %99

119:                                              ; preds = %99
  %120 = load i32, i32* %1, align 4
  %121 = sext i32 %120 to i64
  %122 = getelementptr inbounds [100 x [50 x i8]], [100 x [50 x i8]]* %7, i64 0, i64 %121
  %123 = load i32, i32* %3, align 4
  %124 = add nsw i32 %123, 1
  %125 = sext i32 %124 to i64
  %126 = getelementptr inbounds [50 x i8], [50 x i8]* %122, i64 0, i64 %125
  %127 = load i8, i8* %126, align 1
  %128 = sext i8 %127 to i32
  %129 = load i32, i32* %1, align 4
  %130 = sext i32 %129 to i64
  %131 = getelementptr inbounds [100 x [50 x i8]], [100 x [50 x i8]]* %7, i64 0, i64 %130
  %132 = load i32, i32* %3, align 4
  %133 = add nsw i32 %132, 2
  %134 = sext i32 %133 to i64
  %135 = getelementptr inbounds [50 x i8], [50 x i8]* %131, i64 0, i64 %134
  %136 = load i8, i8* %135, align 1
  %137 = sext i8 %136 to i32
  %138 = load i32, i32* %1, align 4
  %139 = sext i32 %138 to i64
  %140 = getelementptr inbounds [100 x [50 x i8]], [100 x [50 x i8]]* %7, i64 0, i64 %139
  %141 = load i32, i32* %3, align 4
  %142 = add nsw i32 %141, 3
  %143 = sext i32 %142 to i64
  %144 = getelementptr inbounds [50 x i8], [50 x i8]* %140, i64 0, i64 %143
  %145 = load i8, i8* %144, align 1
  %146 = sext i8 %145 to i32
  %147 = call i32 (i8*, ...) @printf(i8* getelementptr inbounds ([7 x i8], [7 x i8]* @.str.1, i64 0, i64 0), i32 %128, i32 %137, i32 %146)
  %148 = load i32, i32* %1, align 4
  %149 = sext i32 %148 to i64
  %150 = getelementptr inbounds [100 x i32], [100 x i32]* %4, i64 0, i64 %149
  %151 = load i32, i32* %150, align 4
  %152 = add nsw i32 %151, 4
  store i32 %152, i32* %2, align 4
  br label %153

153:                                              ; preds = %174, %119
  %154 = load i32, i32* %2, align 4
  %155 = sext i32 %154 to i64
  %156 = load i32, i32* %1, align 4
  %157 = sext i32 %156 to i64
  %158 = getelementptr inbounds [100 x [50 x i8]], [100 x [50 x i8]]* %7, i64 0, i64 %157
  %159 = getelementptr inbounds [50 x i8], [50 x i8]* %158, i64 0, i64 0
  %160 = call i64 @strlen(i8* %159) #3
  %161 = sub i64 %160, 1
  %162 = icmp ult i64 %155, %161
  br i1 %162, label %163, label %177

163:                                              ; preds = %153
  %164 = load i32, i32* %1, align 4
  %165 = sext i32 %164 to i64
  %166 = getelementptr inbounds [100 x [50 x i8]], [100 x [50 x i8]]* %7, i64 0, i64 %165
  %167 = load i32, i32* %2, align 4
  %168 = sub nsw i32 %167, 3
  %169 = sext i32 %168 to i64
  %170 = getelementptr inbounds [50 x i8], [50 x i8]* %166, i64 0, i64 %169
  %171 = load i8, i8* %170, align 1
  %172 = sext i8 %171 to i32
  %173 = call i32 (i8*, ...) @printf(i8* getelementptr inbounds ([3 x i8], [3 x i8]* @.str, i64 0, i64 0), i32 %172)
  br label %174

174:                                              ; preds = %163
  %175 = load i32, i32* %2, align 4
  %176 = add nsw i32 %175, 1
  store i32 %176, i32* %2, align 4
  br label %153

177:                                              ; preds = %153
  %178 = call i32 (i8*, ...) @printf(i8* getelementptr inbounds ([2 x i8], [2 x i8]* @.str.2, i64 0, i64 0))
  br label %179

179:                                              ; preds = %177
  %180 = load i32, i32* %1, align 4
  %181 = add nsw i32 %180, 1
  store i32 %181, i32* %1, align 4
  br label %9

182:                                              ; preds = %24, %9
  ret void
}

declare dso_local i32 @gets(...) #1

; Function Attrs: nounwind readonly
declare dso_local i64 @strlen(i8*) #2

declare dso_local i32 @printf(i8*, ...) #1


!llvm.module.flags = !{!0}
!llvm.ident = !{!1}

!0 = !{i32 1, !"wchar_size", i32 4}
!1 = !{!"clang version 10.0.0-4ubuntu1 "}
